target datalayout = "e-m:e-p270:32:32-p271:32:32-p272:64:64-i64:64-i128:128-f80:128-n8:16:32:64-S128"
target triple = "x86_64-pc-linux-gnu"

%union.int_mv = type { i32 }
%struct.buf_2d = type { ptr, ptr, i32, i32, i32 }
%struct.macroblockd = type { i32, i32, i32, i8, [3 x %struct.macroblockd_plane], %struct.TileInfo, ptr, i8, i8, i8, i8, ptr, ptr, ptr, ptr, ptr, i32, i32, i32, i32, i32, [2 x ptr], ptr, [3 x ptr], [3 x [32 x i8]], ptr, [32 x i8], ptr, ptr, [32 x i8], [3 x %struct.WienerInfo], [3 x %struct.SgrprojInfo], i8, i8, [29 x [8 x %struct.candidate_mv]], [29 x [8 x i16]], i8, i8, [8 x i8], ptr, i32, [8 x i32], [8 x i32], i32, i32, ptr, ptr, i8, [4 x i8], [4 x i8], [7 x i8], [32768 x i8], %struct.cfl_ctx, [2 x i16], ptr, [2 x ptr] }
%struct.macroblockd_plane = type { i8, i32, i32, %struct.buf_2d, [2 x %struct.buf_2d], ptr, ptr, [8 x [2 x i16]], ptr, i8, i8, [8 x [19 x ptr]], [8 x [19 x ptr]] }
%struct.TileInfo = type { i32, i32, i32, i32, i32, i32 }
%struct.WienerInfo = type { [8 x i16], [8 x i16] }
%struct.SgrprojInfo = type { i32, [2 x i32] }
%struct.candidate_mv = type { %union.int_mv, %union.int_mv }
%struct.cfl_ctx = type { [1024 x i16], [1024 x i16], [2 x i32], i32, [2 x [32 x i16]], i32, i32, i32, i32, i32, i32 }
%struct.yv12_buffer_config = type { %union.anon, %union.anon.0, %union.anon.2, %union.anon.4, %union.anon.6, %union.anon.8, i32, [3 x ptr], ptr, i32, ptr, i64, i32, i64, i32, i32, i32, i32, i32, i32, i8, i32, i32, i32, i32, i32, i32, ptr }
%union.anon = type { %struct.anon }
%struct.anon = type { i32, i32 }
%union.anon.0 = type { %struct.anon.1 }
%struct.anon.1 = type { i32, i32 }
%union.anon.2 = type { %struct.anon.3 }
%struct.anon.3 = type { i32, i32 }
%union.anon.4 = type { %struct.anon.5 }
%struct.anon.5 = type { i32, i32 }
%union.anon.6 = type { %struct.anon.7 }
%struct.anon.7 = type { i32, i32 }
%union.anon.8 = type { %struct.anon.9 }
%struct.anon.9 = type { ptr, ptr, ptr }

; Function Attrs: nounwind uwtable
define internal i32 @is_cur_buf_hbd(ptr noundef %0) #0 {
  %2 = alloca ptr, align 8
  store ptr %0, ptr %2, align 8
  %3 = load ptr, ptr %2, align 8
  %4 = getelementptr inbounds nuw %struct.macroblockd, ptr %3, i32 0, i32 22
  %5 = load ptr, ptr %4, align 8
  %6 = getelementptr inbounds nuw %struct.yv12_buffer_config, ptr %5, i32 0, i32 26
  %7 = load i32, ptr %6, align 8
  %8 = and i32 %7, 8
  %9 = icmp ne i32 %8, 0
  %10 = select i1 %9, i32 1, i32 0
  ret i32 %10
}

; Function Attrs: nounwind uwtable
define hidden void @av1_setup_obmc_dst_bufs(ptr noundef %0, ptr noundef %1, ptr noundef %2) #0 {
  %4 = alloca ptr, align 8
  %5 = alloca ptr, align 8
  %6 = alloca ptr, align 8
  %7 = alloca i32, align 4
  store ptr %0, ptr %4, align 8
  store ptr %1, ptr %5, align 8
  store ptr %2, ptr %6, align 8
  %8 = load ptr, ptr %4, align 8
  %9 = call i32 @is_cur_buf_hbd(ptr noundef %8)
  %10 = icmp ne i32 %9, 0
  br i1 %10, label %11, label %82

11:                                               ; preds = %3
  store i32 2, ptr %7, align 4
  %12 = load ptr, ptr %4, align 8
  %13 = getelementptr inbounds nuw %struct.macroblockd, ptr %12, i32 0, i32 55
  %14 = getelementptr inbounds [2 x ptr], ptr %13, i64 0, i64 0
  %15 = load ptr, ptr %14, align 16
  %16 = ptrtoint ptr %15 to i64
  %17 = lshr i64 %16, 1
  %18 = inttoptr i64 %17 to ptr
  %19 = load ptr, ptr %5, align 8
  %20 = getelementptr inbounds ptr, ptr %19, i64 0
  store ptr %18, ptr %20, align 8
  %21 = load ptr, ptr %4, align 8
  %22 = getelementptr inbounds nuw %struct.macroblockd, ptr %21, i32 0, i32 55
  %23 = getelementptr inbounds [2 x ptr], ptr %22, i64 0, i64 0
  %24 = load ptr, ptr %23, align 16
  %25 = load i32, ptr %7, align 4
  %26 = mul nsw i32 16384, %25
  %27 = sext i32 %26 to i64
  %28 = getelementptr inbounds i8, ptr %24, i64 %27
  %29 = ptrtoint ptr %28 to i64
  %30 = lshr i64 %29, 1
  %31 = inttoptr i64 %30 to ptr
  %32 = load ptr, ptr %5, align 8
  %33 = getelementptr inbounds ptr, ptr %32, i64 1
  store ptr %31, ptr %33, align 8
  %34 = load ptr, ptr %4, align 8
  %35 = getelementptr inbounds nuw %struct.macroblockd, ptr %34, i32 0, i32 55
  %36 = getelementptr inbounds [2 x ptr], ptr %35, i64 0, i64 0
  %37 = load ptr, ptr %36, align 16
  %38 = load i32, ptr %7, align 4
  %39 = mul nsw i32 32768, %38
  %40 = sext i32 %39 to i64
  %41 = getelementptr inbounds i8, ptr %37, i64 %40
  %42 = ptrtoint ptr %41 to i64
  %43 = lshr i64 %42, 1
  %44 = inttoptr i64 %43 to ptr
  %45 = load ptr, ptr %5, align 8
  %46 = getelementptr inbounds ptr, ptr %45, i64 2
  store ptr %44, ptr %46, align 8
  %47 = load ptr, ptr %4, align 8
  %48 = getelementptr inbounds nuw %struct.macroblockd, ptr %47, i32 0, i32 55
  %49 = getelementptr inbounds [2 x ptr], ptr %48, i64 0, i64 1
  %50 = load ptr, ptr %49, align 8
  %51 = ptrtoint ptr %50 to i64
  %52 = lshr i64 %51, 1
  %53 = inttoptr i64 %52 to ptr
  %54 = load ptr, ptr %6, align 8
  %55 = getelementptr inbounds ptr, ptr %54, i64 0
  store ptr %53, ptr %55, align 8
  %56 = load ptr, ptr %4, align 8
  %57 = getelementptr inbounds nuw %struct.macroblockd, ptr %56, i32 0, i32 55
  %58 = getelementptr inbounds [2 x ptr], ptr %57, i64 0, i64 1
  %59 = load ptr, ptr %58, align 8
  %60 = load i32, ptr %7, align 4
  %61 = mul nsw i32 16384, %60
  %62 = sext i32 %61 to i64
  %63 = getelementptr inbounds i8, ptr %59, i64 %62
  %64 = ptrtoint ptr %63 to i64
  %65 = lshr i64 %64, 1
  %66 = inttoptr i64 %65 to ptr
  %67 = load ptr, ptr %6, align 8
  %68 = getelementptr inbounds ptr, ptr %67, i64 1
  store ptr %66, ptr %68, align 8
  %69 = load ptr, ptr %4, align 8
  %70 = getelementptr inbounds nuw %struct.macroblockd, ptr %69, i32 0, i32 55
  %71 = getelementptr inbounds [2 x ptr], ptr %70, i64 0, i64 1
  %72 = load ptr, ptr %71, align 8
  %73 = load i32, ptr %7, align 4
  %74 = mul nsw i32 32768, %73
  %75 = sext i32 %74 to i64
  %76 = getelementptr inbounds i8, ptr %72, i64 %75
  %77 = ptrtoint ptr %76 to i64
  %78 = lshr i64 %77, 1
  %79 = inttoptr i64 %78 to ptr
  %80 = load ptr, ptr %6, align 8
  %81 = getelementptr inbounds ptr, ptr %80, i64 2
  store ptr %79, ptr %81, align 8
  br label %123

82:                                               ; preds = %3
  %83 = load ptr, ptr %4, align 8
  %84 = getelementptr inbounds nuw %struct.macroblockd, ptr %83, i32 0, i32 55
  %85 = getelementptr inbounds [2 x ptr], ptr %84, i64 0, i64 0
  %86 = load ptr, ptr %85, align 16
  %87 = load ptr, ptr %5, align 8
  %88 = getelementptr inbounds ptr, ptr %87, i64 0
  store ptr %86, ptr %88, align 8
  %89 = load ptr, ptr %4, align 8
  %90 = getelementptr inbounds nuw %struct.macroblockd, ptr %89, i32 0, i32 55
  %91 = getelementptr inbounds [2 x ptr], ptr %90, i64 0, i64 0
  %92 = load ptr, ptr %91, align 16
  %93 = getelementptr inbounds i8, ptr %92, i64 16384
  %94 = load ptr, ptr %5, align 8
  %95 = getelementptr inbounds ptr, ptr %94, i64 1
  store ptr %93, ptr %95, align 8
  %96 = load ptr, ptr %4, align 8
  %97 = getelementptr inbounds nuw %struct.macroblockd, ptr %96, i32 0, i32 55
  %98 = getelementptr inbounds [2 x ptr], ptr %97, i64 0, i64 0
  %99 = load ptr, ptr %98, align 16
  %100 = getelementptr inbounds i8, ptr %99, i64 32768
  %101 = load ptr, ptr %5, align 8
  %102 = getelementptr inbounds ptr, ptr %101, i64 2
  store ptr %100, ptr %102, align 8
  %103 = load ptr, ptr %4, align 8
  %104 = getelementptr inbounds nuw %struct.macroblockd, ptr %103, i32 0, i32 55
  %105 = getelementptr inbounds [2 x ptr], ptr %104, i64 0, i64 1
  %106 = load ptr, ptr %105, align 8
  %107 = load ptr, ptr %6, align 8
  %108 = getelementptr inbounds ptr, ptr %107, i64 0
  store ptr %106, ptr %108, align 8
  %109 = load ptr, ptr %4, align 8
  %110 = getelementptr inbounds nuw %struct.macroblockd, ptr %109, i32 0, i32 55
  %111 = getelementptr inbounds [2 x ptr], ptr %110, i64 0, i64 1
  %112 = load ptr, ptr %111, align 8
  %113 = getelementptr inbounds i8, ptr %112, i64 16384
  %114 = load ptr, ptr %6, align 8
  %115 = getelementptr inbounds ptr, ptr %114, i64 1
  store ptr %113, ptr %115, align 8
  %116 = load ptr, ptr %4, align 8
  %117 = getelementptr inbounds nuw %struct.macroblockd, ptr %116, i32 0, i32 55
  %118 = getelementptr inbounds [2 x ptr], ptr %117, i64 0, i64 1
  %119 = load ptr, ptr %118, align 8
  %120 = getelementptr inbounds i8, ptr %119, i64 32768
  %121 = load ptr, ptr %6, align 8
  %122 = getelementptr inbounds ptr, ptr %121, i64 2
  store ptr %120, ptr %122, align 8
  br label %123

123:                                              ; preds = %82, %11
  ret void
}