; Function Attrs: mustprogress nofree norecurse nosync nounwind willreturn memory(read, argmem: readwrite, inaccessiblemem: none) uwtable
define hidden void @av1_setup_obmc_dst_bufs(ptr nocapture noundef readonly %0, ptr nocapture noundef writeonly %1, ptr nocapture noundef writeonly %2) local_unnamed_addr #13 {
  %4 = getelementptr i8, ptr %0, i64 7960
  %.val = load ptr, ptr %4, align 8
  %5 = getelementptr i8, ptr %.val, i64 192
  %.val.val = load i32, ptr %5, align 8
  %6 = and i32 %.val.val, 8
  %.not = icmp eq i32 %6, 0
  %7 = getelementptr inbounds nuw i8, ptr %0, i64 47808
  %8 = load ptr, ptr %7, align 16
  br i1 %.not, label %41, label %9

9:                                                ; preds = %3
  %10 = ptrtoint ptr %8 to i64
  %11 = lshr i64 %10, 1
  %12 = inttoptr i64 %11 to ptr
  store ptr %12, ptr %1, align 8
  %13 = load ptr, ptr %7, align 16
  %14 = getelementptr inbounds i8, ptr %13, i64 32768
  %15 = ptrtoint ptr %14 to i64
  %16 = lshr i64 %15, 1
  %17 = inttoptr i64 %16 to ptr
  %18 = getelementptr inbounds i8, ptr %1, i64 8
  store ptr %17, ptr %18, align 8
  %19 = load ptr, ptr %7, align 16
  %20 = getelementptr inbounds i8, ptr %19, i64 65536
  %21 = ptrtoint ptr %20 to i64
  %22 = lshr i64 %21, 1
  %23 = inttoptr i64 %22 to ptr
  %24 = getelementptr inbounds i8, ptr %1, i64 16
  store ptr %23, ptr %24, align 8
  %25 = getelementptr inbounds i8, ptr %0, i64 47816
  %26 = load ptr, ptr %25, align 8
  %27 = ptrtoint ptr %26 to i64
  %28 = lshr i64 %27, 1
  %29 = inttoptr i64 %28 to ptr
  store ptr %29, ptr %2, align 8
  %30 = load ptr, ptr %25, align 8
  %31 = getelementptr inbounds i8, ptr %30, i64 32768
  %32 = ptrtoint ptr %31 to i64
  %33 = lshr i64 %32, 1
  %34 = inttoptr i64 %33 to ptr
  %35 = getelementptr inbounds i8, ptr %2, i64 8
  store ptr %34, ptr %35, align 8
  %36 = load ptr, ptr %25, align 8
  %37 = getelementptr inbounds i8, ptr %36, i64 65536
  %38 = ptrtoint ptr %37 to i64
  %39 = lshr i64 %38, 1
  %40 = inttoptr i64 %39 to ptr
  br label %53

41:                                               ; preds = %3
  store ptr %8, ptr %1, align 8
  %42 = getelementptr inbounds i8, ptr %8, i64 16384
  %43 = getelementptr inbounds i8, ptr %1, i64 8
  store ptr %42, ptr %43, align 8
  %44 = load ptr, ptr %7, align 16
  %45 = getelementptr inbounds i8, ptr %44, i64 32768
  %46 = getelementptr inbounds i8, ptr %1, i64 16
  store ptr %45, ptr %46, align 8
  %47 = getelementptr inbounds i8, ptr %0, i64 47816
  %48 = load ptr, ptr %47, align 8
  store ptr %48, ptr %2, align 8
  %49 = getelementptr inbounds i8, ptr %48, i64 16384
  %50 = getelementptr inbounds i8, ptr %2, i64 8
  store ptr %49, ptr %50, align 8
  %51 = load ptr, ptr %47, align 8
  %52 = getelementptr inbounds i8, ptr %51, i64 32768
  br label %53

53:                                               ; preds = %41, %9
  %.sink = phi ptr [ %52, %41 ], [ %40, %9 ]
  %54 = getelementptr inbounds i8, ptr %2, i64 16
  store ptr %.sink, ptr %54, align 8
  ret void
}